(lp1
F0.45000000000000001
aF0.20999999999999999
aF0.27000000000000002
aF0.17000000000000001
aF0.23000000000000001
aF0.17999999999999999
aF0.23999999999999999
aF0.40999999999999998
aF0.17000000000000001
aF0.29999999999999999
aF0.13
aF0.38
aF0.10000000000000001
aF0.38
aF0.10000000000000001
aF0.14999999999999999
aF0.71999999999999997
aF0.38
aF0.28999999999999998
aF0.22
aF0.25
aF0.56000000000000005
aF0.16
aF0.44
aF0.22
aF0.25
aF0.29999999999999999
aF0.19
aF0.26000000000000001
aF0.35999999999999999
aF0.26000000000000001
aF0.17000000000000001
aF0.28999999999999998
aF0.22
aF0.20999999999999999
aF0.23000000000000001
aF0.22
aF0.29999999999999999
aF0.31
aF0.38
aF0.14999999999999999
aF0.35999999999999999
aF0.28999999999999998
aF0.25
aF0.089999999999999997
aF0.28000000000000003
aF0.27000000000000002
aF0.40000000000000002
aF0.14000000000000001
aF0.25
aF0.17000000000000001
aF0.40999999999999998
aF0.33000000000000002
aF0.25
aF0.089999999999999997
aF0.25
aF0.17000000000000001
aF0.16
aF0.46999999999999997
aF0.31
aF0.46999999999999997
aF0.34999999999999998
aF0.34000000000000002
aF0.26000000000000001
aF0.25
aF0.25
aF0.23000000000000001
aF0.23999999999999999
aF0.40999999999999998
aF0.23999999999999999
aF0.19
aF0.17000000000000001
aF0.29999999999999999
aF0.089999999999999997
aF0.59999999999999998
aF0.28999999999999998
aF0.20000000000000001
aF0.17999999999999999
aF0.19
aF0.22
aF0.28000000000000003
aF0.17999999999999999
aF0.20000000000000001
aF0.19
aF0.41999999999999998
aF0.34999999999999998
aF0.33000000000000002
aF0.14999999999999999
aF0.27000000000000002
aF0.31
aF0.28999999999999998
aF0.46000000000000002
aF0.23000000000000001
aF0.48999999999999999
aF0.17999999999999999
aF0.17999999999999999
aF0.10000000000000001
aF0.41999999999999998
aF0.23999999999999999
aF0.10000000000000001
aF0.23000000000000001
aF0.65000000000000002
aF0.23999999999999999
aF0.31
aF0.26000000000000001
aF0.19
aF0.22
aF0.10000000000000001
aF0.33000000000000002
aF0.27000000000000002
aF0.17000000000000001
aF0.25
aF0.39000000000000001
aF0.35999999999999999
aF0.31
aF0.20999999999999999
aF0.28999999999999998
aF0.27000000000000002
aF0.35999999999999999
aF0.19
aF0.13
aF0.37
aF0.28000000000000003
aF0.23999999999999999
aF0.080000000000000002
aF0.23999999999999999
aF0.39000000000000001
aF0.27000000000000002
aF0.34999999999999998
aF0.13
aF0.34000000000000002
aF0.34000000000000002
aF0.29999999999999999
aF0.23999999999999999
aF0.26000000000000001
aF0.31
aF0.20999999999999999
aF0.28000000000000003
aF0.22
aF0.23000000000000001
aF0.28999999999999998
aF0.28000000000000003
aF0.17000000000000001
aF0.13
aF0.25
aF0.17999999999999999
aF0.22
aF0.31
aF0.23999999999999999
aF0.20000000000000001
aF0.48999999999999999
aF0.19
aF0.33000000000000002
aF0.14999999999999999
aF0.26000000000000001
aF0.13
aF0.32000000000000001
a.